target datalayout = "e-m:e-p270:32:32-p271:32:32-p272:64:64-i64:64-i128:128-f80:128-n8:16:32:64-S128"
target triple = "x86_64-pc-linux-gnu"

%struct._zval_struct = type { %union._zend_value, %union.anon.3, %union.anon.6 }
%union._zend_value = type { i64 }
%union.anon.3 = type { i32 }
%union.anon.6 = type { i32 }
%struct._zend_refcounted_h = type { i32, %union.anon.1 }
%union.anon.1 = type { i32 }
%struct._pdo_stmt_t = type { ptr, ptr, [6 x i8], i16, ptr, ptr, ptr, ptr, i32, i32, %union.anon, ptr, ptr, ptr, i64, ptr, ptr, ptr, %struct._zend_object }
%union.anon = type { %struct.anon.0 }
%struct.anon.0 = type { %struct._zend_fcall_info_cache }
%struct._zend_fcall_info_cache = type { ptr, ptr, ptr, ptr, ptr }
%struct._zend_object = type { %struct._zend_refcounted_h, i32, i32, ptr, ptr, ptr, [1 x %struct._zval_struct] }
%struct.pdo_column_data = type { ptr, i64, i64 }
%struct._zend_string = type { %struct._zend_refcounted_h, i64, i64, [1 x i8] }

; Function Attrs: alwaysinline nounwind uwtable
define internal i32 @zend_gc_delref(ptr noundef %0) #3 {
  %2 = alloca ptr, align 8
  store ptr %0, ptr %2, align 8, !tbaa !109
  %3 = load ptr, ptr %2, align 8, !tbaa !109
  %4 = getelementptr inbounds nuw %struct._zend_refcounted_h, ptr %3, i32 0, i32 0
  %5 = load i32, ptr %4, align 4, !tbaa !111
  %6 = icmp ugt i32 %5, 0
  call void @llvm.assume(i1 %6)
  br label %7

7:                                                ; preds = %1
  br label %8

8:                                                ; preds = %7
  %9 = load ptr, ptr %2, align 8, !tbaa !109
  %10 = getelementptr inbounds nuw %struct._zend_refcounted_h, ptr %9, i32 0, i32 0
  %11 = load i32, ptr %10, align 4, !tbaa !111
  %12 = add i32 %11, -1
  store i32 %12, ptr %10, align 4, !tbaa !111
  ret i32 %12
}

; Function Attrs: alwaysinline nounwind uwtable
define internal i32 @zval_gc_flags(i32 noundef %0) #3 {
  %2 = alloca i32, align 4
  store i32 %0, ptr %2, align 4, !tbaa !26
  %3 = load i32, ptr %2, align 4, !tbaa !26
  %4 = lshr i32 %3, 0
  %5 = and i32 %4, 1008
  ret i32 %5
}

; Function Attrs: alwaysinline nounwind uwtable
define internal void @zend_string_release_ex(ptr noundef %0, i1 noundef zeroext %1) #3 {
  %3 = alloca ptr, align 8
  %4 = alloca i8, align 1
  store ptr %0, ptr %3, align 8, !tbaa !39
  %5 = zext i1 %1 to i8
  store i8 %5, ptr %4, align 1, !tbaa !53
  %6 = load ptr, ptr %3, align 8, !tbaa !39
  %7 = getelementptr inbounds nuw %struct._zend_string, ptr %6, i32 0, i32 0
  %8 = getelementptr inbounds nuw %struct._zend_refcounted_h, ptr %7, i32 0, i32 1
  %9 = load i32, ptr %8, align 4, !tbaa !45
  %10 = call i32 @zval_gc_flags(i32 noundef %9)
  %11 = and i32 %10, 64
  %12 = icmp ne i32 %11, 0
  br i1 %12, label %27, label %13

13:                                               ; preds = %2
  %14 = load ptr, ptr %3, align 8, !tbaa !39
  %15 = getelementptr inbounds nuw %struct._zend_string, ptr %14, i32 0, i32 0
  %16 = call i32 @zend_gc_delref(ptr noundef %15)
  %17 = icmp eq i32 %16, 0
  br i1 %17, label %18, label %26

18:                                               ; preds = %13
  %19 = load i8, ptr %4, align 1, !tbaa !53, !range !54, !noundef !55
  %20 = trunc i8 %19 to i1
  br i1 %20, label %21, label %23

21:                                               ; preds = %18
  %22 = load ptr, ptr %3, align 8, !tbaa !39
  call void @free(ptr noundef %22) #14
  br label %25

23:                                               ; preds = %18
  %24 = load ptr, ptr %3, align 8, !tbaa !39
  call void @_efree(ptr noundef %24)
  br label %25

25:                                               ; preds = %23, %21
  br label %26

26:                                               ; preds = %25, %13
  br label %27

27:                                               ; preds = %26, %2
  ret void
}

; Function Attrs: nounwind uwtable
define internal void @pdo_stmt_reset_columns(ptr noundef %0) #0 {
  %2 = alloca ptr, align 8
  %3 = alloca i32, align 4
  %4 = alloca ptr, align 8
  store ptr %0, ptr %2, align 8, !tbaa !4
  %5 = load ptr, ptr %2, align 8, !tbaa !4
  %6 = getelementptr inbounds nuw %struct._pdo_stmt_t, ptr %5, i32 0, i32 7
  %7 = load ptr, ptr %6, align 8, !tbaa !25
  %8 = icmp ne ptr %7, null
  br i1 %8, label %9, label %42

9:                                                ; preds = %1
  call void @llvm.lifetime.start.p0(i64 4, ptr %3) #14
  call void @llvm.lifetime.start.p0(i64 8, ptr %4) #14
  %10 = load ptr, ptr %2, align 8, !tbaa !4
  %11 = getelementptr inbounds nuw %struct._pdo_stmt_t, ptr %10, i32 0, i32 7
  %12 = load ptr, ptr %11, align 8, !tbaa !25
  store ptr %12, ptr %4, align 8, !tbaa !49
  store i32 0, ptr %3, align 4, !tbaa !26
  br label %13

13:                                               ; preds = %35, %9
  %14 = load i32, ptr %3, align 4, !tbaa !26
  %15 = load ptr, ptr %2, align 8, !tbaa !4
  %16 = getelementptr inbounds nuw %struct._pdo_stmt_t, ptr %15, i32 0, i32 8
  %17 = load i32, ptr %16, align 8, !tbaa !9
  %18 = icmp slt i32 %14, %17
  br i1 %18, label %19, label %38

19:                                               ; preds = %13
  %20 = load ptr, ptr %4, align 8, !tbaa !49
  %21 = load i32, ptr %3, align 4, !tbaa !26
  %22 = sext i32 %21 to i64
  %23 = getelementptr inbounds %struct.pdo_column_data, ptr %20, i64 %22
  %24 = getelementptr inbounds nuw %struct.pdo_column_data, ptr %23, i32 0, i32 0
  %25 = load ptr, ptr %24, align 8, !tbaa !37
  %26 = icmp ne ptr %25, null
  br i1 %26, label %27, label %34

27:                                               ; preds = %19
  %28 = load ptr, ptr %4, align 8, !tbaa !49
  %29 = load i32, ptr %3, align 4, !tbaa !26
  %30 = sext i32 %29 to i64
  %31 = getelementptr inbounds %struct.pdo_column_data, ptr %28, i64 %30
  %32 = getelementptr inbounds nuw %struct.pdo_column_data, ptr %31, i32 0, i32 0
  %33 = load ptr, ptr %32, align 8, !tbaa !37
  call void @zend_string_release_ex(ptr noundef %33, i1 noundef zeroext false)
  br label %34

34:                                               ; preds = %27, %19
  br label %35

35:                                               ; preds = %34
  %36 = load i32, ptr %3, align 4, !tbaa !26
  %37 = add nsw i32 %36, 1
  store i32 %37, ptr %3, align 4, !tbaa !26
  br label %13

38:                                               ; preds = %13
  %39 = load ptr, ptr %2, align 8, !tbaa !4
  %40 = getelementptr inbounds nuw %struct._pdo_stmt_t, ptr %39, i32 0, i32 7
  %41 = load ptr, ptr %40, align 8, !tbaa !25
  call void @_efree(ptr noundef %41)
  call void @llvm.lifetime.end.p0(i64 8, ptr %4) #14
  call void @llvm.lifetime.end.p0(i64 4, ptr %3) #14
  br label %42

42:                                               ; preds = %38, %1
  %43 = load ptr, ptr %2, align 8, !tbaa !4
  %44 = getelementptr inbounds nuw %struct._pdo_stmt_t, ptr %43, i32 0, i32 7
  store ptr null, ptr %44, align 8, !tbaa !25
  %45 = load ptr, ptr %2, align 8, !tbaa !4
  %46 = getelementptr inbounds nuw %struct._pdo_stmt_t, ptr %45, i32 0, i32 8
  store i32 0, ptr %46, align 8, !tbaa !9
  ret void
}

; Function Attrs: nounwind uwtable
define dso_local void @php_pdo_stmt_set_column_count(ptr noundef %0, i32 noundef %1) #0 {
  %3 = alloca ptr, align 8
  %4 = alloca i32, align 4
  store ptr %0, ptr %3, align 8, !tbaa !4
  store i32 %1, ptr %4, align 4, !tbaa !26
  %5 = load ptr, ptr %3, align 8, !tbaa !4
  %6 = getelementptr inbounds nuw %struct._pdo_stmt_t, ptr %5, i32 0, i32 7
  %7 = load ptr, ptr %6, align 8, !tbaa !25
  %8 = icmp ne ptr %7, null
  br i1 %8, label %13, label %9

9:                                                ; preds = %2
  %10 = load i32, ptr %4, align 4, !tbaa !26
  %11 = load ptr, ptr %3, align 8, !tbaa !4
  %12 = getelementptr inbounds nuw %struct._pdo_stmt_t, ptr %11, i32 0, i32 8
  store i32 %10, ptr %12, align 8, !tbaa !9
  br label %25

13:                                               ; preds = %2
  %14 = load i32, ptr %4, align 4, !tbaa !26
  %15 = load ptr, ptr %3, align 8, !tbaa !4
  %16 = getelementptr inbounds nuw %struct._pdo_stmt_t, ptr %15, i32 0, i32 8
  %17 = load i32, ptr %16, align 8, !tbaa !9
  %18 = icmp eq i32 %14, %17
  br i1 %18, label %19, label %20

19:                                               ; preds = %13
  br label %25

20:                                               ; preds = %13
  %21 = load ptr, ptr %3, align 8, !tbaa !4
  call void @pdo_stmt_reset_columns(ptr noundef %21)
  %22 = load i32, ptr %4, align 4, !tbaa !26
  %23 = load ptr, ptr %3, align 8, !tbaa !4
  %24 = getelementptr inbounds nuw %struct._pdo_stmt_t, ptr %23, i32 0, i32 8
  store i32 %22, ptr %24, align 8, !tbaa !9
  br label %25

25:                                               ; preds = %20, %19, %9
  ret void
}