; Function Attrs: nounwind uwtable
define dso_local void @php_pdo_stmt_set_column_count(ptr noundef captures(none) %0, i32 noundef %1) local_unnamed_addr #0 {
  %3 = getelementptr inbounds nuw i8, ptr %0, i64 48
  %4 = load ptr, ptr %3, align 8, !tbaa !23
  %.not = icmp eq ptr %4, null
  %5 = getelementptr inbounds nuw i8, ptr %0, i64 56
  br i1 %.not, label %.sink.split, label %6

6:                                                ; preds = %2
  %7 = load i32, ptr %5, align 8, !tbaa !4
  %8 = icmp eq i32 %1, %7
  br i1 %8, label %27, label %.preheader.i

.preheader.i:                                     ; preds = %6
  %9 = icmp sgt i32 %7, 0
  br i1 %9, label %.lr.ph.i, label %pdo_stmt_reset_columns.exit

.lr.ph.i:                                         ; preds = %.preheader.i, %zend_string_release_ex.exit.i
  %10 = phi i32 [ %23, %zend_string_release_ex.exit.i ], [ %7, %.preheader.i ]
  %indvars.iv.i = phi i64 [ %indvars.iv.next.i, %zend_string_release_ex.exit.i ], [ 0, %.preheader.i ]
  %11 = getelementptr inbounds nuw %struct.pdo_column_data, ptr %4, i64 %indvars.iv.i
  %12 = load ptr, ptr %11, align 8, !tbaa !35
  %.not13.i = icmp eq ptr %12, null
  br i1 %.not13.i, label %zend_string_release_ex.exit.i, label %13

13:                                               ; preds = %.lr.ph.i
  %14 = getelementptr inbounds nuw i8, ptr %12, i64 4
  %15 = load i32, ptr %14, align 4, !tbaa !37
  %16 = and i32 %15, 64
  %.not.i.i = icmp eq i32 %16, 0
  br i1 %.not.i.i, label %17, label %zend_string_release_ex.exit.i

17:                                               ; preds = %13
  %18 = load i32, ptr %12, align 4, !tbaa !38
  %19 = icmp ne i32 %18, 0
  tail call void @llvm.assume(i1 %19)
  %20 = add i32 %18, -1
  store i32 %20, ptr %12, align 4, !tbaa !38
  %21 = icmp eq i32 %20, 0
  br i1 %21, label %22, label %zend_string_release_ex.exit.i

22:                                               ; preds = %17
  tail call void @_efree(ptr noundef nonnull %12) #17
  %.pre.i = load i32, ptr %5, align 8, !tbaa !4
  br label %zend_string_release_ex.exit.i

zend_string_release_ex.exit.i:                    ; preds = %22, %17, %13, %.lr.ph.i
  %23 = phi i32 [ %.pre.i, %22 ], [ %10, %17 ], [ %10, %13 ], [ %10, %.lr.ph.i ]
  %indvars.iv.next.i = add nuw nsw i64 %indvars.iv.i, 1
  %24 = sext i32 %23 to i64
  %25 = icmp slt i64 %indvars.iv.next.i, %24
  br i1 %25, label %.lr.ph.i, label %._crit_edge.loopexit.i

._crit_edge.loopexit.i:                           ; preds = %zend_string_release_ex.exit.i
  %.pre16.i = load ptr, ptr %3, align 8, !tbaa !23
  br label %pdo_stmt_reset_columns.exit

pdo_stmt_reset_columns.exit:                      ; preds = %.preheader.i, %._crit_edge.loopexit.i
  %26 = phi ptr [ %.pre16.i, %._crit_edge.loopexit.i ], [ %4, %.preheader.i ]
  tail call void @_efree(ptr noundef %26) #17
  store ptr null, ptr %3, align 8, !tbaa !23
  br label %.sink.split

.sink.split:                                      ; preds = %2, %pdo_stmt_reset_columns.exit
  store i32 %1, ptr %5, align 8, !tbaa !4
  br label %27

27:                                               ; preds = %.sink.split, %6
  ret void
}